; Function Attrs: mustprogress uwtable
define internal void @_ZN11opencv_testL41gtest_Size_MatType_inRange_EvalGenerator_Ev(ptr dead_on_unwind noalias writable sret(%"class.testing::internal::ParamGenerator") align 8 %0) #4 {
  %2 = alloca %"class.testing::internal::CartesianProductHolder2", align 8
  call void @llvm.lifetime.start.p0(i64 56, ptr nonnull %2) #29
  %.sroa.02.0.copyload = load i64, ptr @_ZN4perfL5szVGAE, align 8
  %.sroa.01.0.copyload = load i64, ptr @_ZN4perfL6sz720pE, align 8
  %.sroa.0.0.copyload = load i64, ptr @_ZN4perfL7sz1080pE, align 8
  store i64 %.sroa.02.0.copyload, ptr %2, align 8, !alias.scope !70
  %3 = getelementptr inbounds nuw i8, ptr %2, i64 8
  store i64 %.sroa.01.0.copyload, ptr %3, align 8, !alias.scope !70
  %4 = getelementptr inbounds nuw i8, ptr %2, i64 16
  store i64 %.sroa.0.0.copyload, ptr %4, align 8, !alias.scope !70
  %5 = getelementptr inbounds nuw i8, ptr %2, i64 24
  store i32 0, ptr %5, align 8, !tbaa !73, !alias.scope !70
  %6 = getelementptr inbounds nuw i8, ptr %2, i64 28
  store i32 24, ptr %6, align 4, !tbaa !75, !alias.scope !70
  %7 = getelementptr inbounds nuw i8, ptr %2, i64 32
  store i32 1, ptr %7, align 8, !tbaa !76, !alias.scope !70
  %8 = getelementptr inbounds nuw i8, ptr %2, i64 36
  store i32 2, ptr %8, align 4, !tbaa !77, !alias.scope !70
  %9 = getelementptr inbounds nuw i8, ptr %2, i64 40
  store i32 3, ptr %9, align 8, !tbaa !78, !alias.scope !70
  %10 = getelementptr inbounds nuw i8, ptr %2, i64 44
  store i32 4, ptr %10, align 4, !tbaa !79, !alias.scope !70
  %11 = getelementptr inbounds nuw i8, ptr %2, i64 48
  store i32 5, ptr %11, align 8, !tbaa !80, !alias.scope !70
  %12 = getelementptr inbounds nuw i8, ptr %2, i64 52
  store i32 29, ptr %12, align 4, !tbaa !81, !alias.scope !70
  call void @_ZNK7testing8internal23CartesianProductHolder2INS0_11ValueArray3IN2cv5Size_IiEES5_S5_EENS0_11ValueArray8IiiiiiiiiEEEcvNS0_14ParamGeneratorISt5tupleIJT_T0_EEEEIS5_N4perf7MatTypeEEEv(ptr dead_on_unwind writable sret(%"class.testing::internal::ParamGenerator") align 8 %0, ptr noundef nonnull align 4 dereferenceable(56) %2)
  call void @llvm.lifetime.end.p0(i64 56, ptr nonnull %2) #29
  ret void
}